target datalayout = "e-m:e-p270:32:32-p271:32:32-p272:64:64-i64:64-i128:128-f80:128-n8:16:32:64-S128"
target triple = "x86_64-pc-linux-gnu"

%struct._dt_s = type { ptr, ptr, ptr, ptr, i32, ptr, ptr, ptr }

@ImageDict = internal global ptr null, align 8

; Function Attrs: nounwind uwtable
define ptr @gvusershape_find(ptr noundef %0) #0 {
  %2 = alloca ptr, align 8
  %3 = alloca ptr, align 8
  %4 = alloca ptr, align 8
  store ptr %0, ptr %3, align 8
  %5 = load ptr, ptr @ImageDict, align 8
  %6 = icmp ne ptr %5, null
  br i1 %6, label %8, label %7

7:                                                ; preds = %1
  store ptr null, ptr %2, align 8
  br label %16

8:                                                ; preds = %1
  %9 = load ptr, ptr @ImageDict, align 8
  %10 = getelementptr inbounds %struct._dt_s, ptr %9, i32 0, i32 0
  %11 = load ptr, ptr %10, align 8
  %12 = load ptr, ptr @ImageDict, align 8
  %13 = load ptr, ptr %3, align 8
  %14 = call ptr %11(ptr noundef %12, ptr noundef %13, i32 noundef 512)
  store ptr %14, ptr %4, align 8
  %15 = load ptr, ptr %4, align 8
  store ptr %15, ptr %2, align 8
  br label %16

16:                                               ; preds = %8, %7
  %17 = load ptr, ptr %2, align 8
  ret ptr %17
}