; Function Attrs: nounwind uwtable
define ptr @gvusershape_find(ptr noundef %0) local_unnamed_addr #0 {
  %2 = load ptr, ptr @ImageDict, align 8
  %.not = icmp eq ptr %2, null
  br i1 %.not, label %6, label %3

3:                                                ; preds = %1
  %4 = load ptr, ptr %2, align 8
  %5 = tail call ptr %4(ptr noundef nonnull %2, ptr noundef %0, i32 noundef 512) #21
  br label %6

6:                                                ; preds = %1, %3
  %.0 = phi ptr [ %5, %3 ], [ null, %1 ]
  ret ptr %.0
}